(lp0
(iJob
Job
p1
(dp2
S'status'
p3
I0
sS'failcount'
p4
I0
sS'parents'
p5
(lp6
(iJob
Job
p7
(dp8
g3
I0
sg4
I0
sg5
(lp9
(iJob
Job
p10
(dp11
g3
I3
sg4
I0
sg5
(lp12
sS'name'
p13
S'job_19601101_0_1_sim'
p14
sS'children'
p15
(lp16
g7
a(iJob
Job
p17
(dp18
g3
I0
sg4
I0
sg5
(lp19
g10
asg13
S'job_19601101_0_2_sim'
p20
sg15
(lp21
(iJob
Job
p22
(dp23
g3
I0
sg4
I0
sg5
(lp24
g17
asg13
S'job_19601101_0_2_post'
p25
sg15
(lp26
(iJob
Job
p27
(dp28
g3
I0
sg4
I0
sg5
(lp29
g22
asg13
S'job_19601101_0_2_clean'
p30
sg15
(lp31
sS'jobtype'
p32
I2
sS'id'
p33
I0
sbasg32
I1
sg33
I0
sbasg32
I0
sg33
I0
sbasg32
I0
sg33
I2797854
sbasg13
S'job_19601101_0_1_post'
p34
sg15
(lp35
g1
asg32
I1
sg33
I0
sbasg13
S'job_19601101_0_1_clean'
p36
sg15
(lp37
sg32
I2
sg33
I0
sba(iJob
Job
p38
(dp39
g3
I5
sg4
I0
sg5
(lp40
sg13
S'job_19601101_0_1_ini'
p41
sg15
(lp42
g10
asg32
I3
sg33
I2797660
sbag7
ag10
ag27
ag22
ag17
a(iJob
Job
p43
(dp44
g3
I0
sg4
I0
sg5
(lp45
(iJob
Job
p46
(dp47
g3
I0
sg4
I0
sg5
(lp48
(iJob
Job
p49
(dp50
g3
I3
sg4
I0
sg5
(lp51
sg13
S'job_19601101_1_1_sim'
p52
sg15
(lp53
g46
a(iJob
Job
p54
(dp55
g3
I0
sg4
I0
sg5
(lp56
g49
asg13
S'job_19601101_1_2_sim'
p57
sg15
(lp58
(iJob
Job
p59
(dp60
g3
I0
sg4
I0
sg5
(lp61
g54
asg13
S'job_19601101_1_2_post'
p62
sg15
(lp63
(iJob
Job
p64
(dp65
g3
I0
sg4
I0
sg5
(lp66
g59
asg13
S'job_19601101_1_2_clean'
p67
sg15
(lp68
sg32
I2
sg33
I0
sbasg32
I1
sg33
I0
sbasg32
I0
sg33
I0
sbasg32
I0
sg33
I2797853
sbasg13
S'job_19601101_1_1_post'
p69
sg15
(lp70
g43
asg32
I1
sg33
I0
sbasg13
S'job_19601101_1_1_clean'
p71
sg15
(lp72
sg32
I2
sg33
I0
sba(iJob
Job
p73
(dp74
g3
I5
sg4
I0
sg5
(lp75
sg13
S'job_19601101_1_1_ini'
p76
sg15
(lp77
g49
asg32
I3
sg33
I2797659
sbag46
ag49
ag64
ag59
ag54
a.