(lp0
(iJob
Job
p1
(dp2
S'status'
p3
I0
sS'failcount'
p4
I0
sS'parents'
p5
(lp6
(iJob
Job
p7
(dp8
g3
I0
sg4
I0
sg5
(lp9
(iJob
Job
p10
(dp11
g3
I0
sg4
I0
sg5
(lp12
(iJob
Job
p13
(dp14
g3
I0
sg4
I0
sg5
(lp15
(iJob
Job
p16
(dp17
g3
I0
sg4
I0
sg5
(lp18
(iJob
Job
p19
(dp20
g3
I0
sg4
I0
sg5
(lp21
(iJob
Job
p22
(dp23
g3
I0
sg4
I0
sg5
(lp24
(iJob
Job
p25
(dp26
g3
I0
sg4
I0
sg5
(lp27
(iJob
Job
p28
(dp29
g3
I0
sg4
I0
sg5
(lp30
(iJob
Job
p31
(dp32
g3
I0
sg4
I0
sg5
(lp33
(iJob
Job
p34
(dp35
g3
I0
sg4
I0
sg5
(lp36
(iJob
Job
p37
(dp38
g3
I3
sg4
I3
sg5
(lp39
sS'name'
p40
S'job_19601101_0_1_sim'
p41
sS'children'
p42
(lp43
(iJob
Job
p44
(dp45
g3
I0
sg4
I0
sg5
(lp46
g37
asg40
S'job_19601101_0_1_post'
p47
sg42
(lp48
(iJob
Job
p49
(dp50
g3
I0
sg4
I0
sg5
(lp51
g44
asg40
S'job_19601101_0_1_clean'
p52
sg42
(lp53
g31
asS'jobtype'
p54
I2
sS'id'
p55
I0
sbasg54
I1
sg55
I0
sbag34
asg54
I0
sg55
I2835609
sbasg40
S'job_19601101_0_2_sim'
p56
sg42
(lp57
(iJob
Job
p58
(dp59
g3
I0
sg4
I0
sg5
(lp60
g34
asg40
S'job_19601101_0_2_post'
p61
sg42
(lp62
(iJob
Job
p63
(dp64
g3
I0
sg4
I0
sg5
(lp65
g58
asg40
S'job_19601101_0_2_clean'
p66
sg42
(lp67
g28
asg54
I2
sg55
I0
sbasg54
I1
sg55
I0
sbag31
asg54
I0
sg55
I0
sbag49
asg40
S'job_19601101_0_3_sim'
p68
sg42
(lp69
(iJob
Job
p70
(dp71
g3
I0
sg4
I0
sg5
(lp72
g31
asg40
S'job_19601101_0_3_post'
p73
sg42
(lp74
(iJob
Job
p75
(dp76
g3
I0
sg4
I0
sg5
(lp77
g70
asg40
S'job_19601101_0_3_clean'
p78
sg42
(lp79
g25
asg54
I2
sg55
I0
sbasg54
I1
sg55
I0
sbag28
asg54
I0
sg55
I0
sbag63
asg40
S'job_19601101_0_4_sim'
p80
sg42
(lp81
(iJob
Job
p82
(dp83
g3
I0
sg4
I0
sg5
(lp84
g28
asg40
S'job_19601101_0_4_post'
p85
sg42
(lp86
(iJob
Job
p87
(dp88
g3
I0
sg4
I0
sg5
(lp89
g82
asg40
S'job_19601101_0_4_clean'
p90
sg42
(lp91
g22
asg54
I2
sg55
I0
sbasg54
I1
sg55
I0
sbag25
asg54
I0
sg55
I0
sbag75
asg40
S'job_19601101_0_5_sim'
p92
sg42
(lp93
(iJob
Job
p94
(dp95
g3
I0
sg4
I0
sg5
(lp96
g25
asg40
S'job_19601101_0_5_post'
p97
sg42
(lp98
(iJob
Job
p99
(dp100
g3
I0
sg4
I0
sg5
(lp101
g94
asg40
S'job_19601101_0_5_clean'
p102
sg42
(lp103
g19
asg54
I2
sg55
I0
sbasg54
I1
sg55
I0
sbag22
asg54
I0
sg55
I0
sbag87
asg40
S'job_19601101_0_6_sim'
p104
sg42
(lp105
(iJob
Job
p106
(dp107
g3
I0
sg4
I0
sg5
(lp108
g22
asg40
S'job_19601101_0_6_post'
p109
sg42
(lp110
(iJob
Job
p111
(dp112
g3
I0
sg4
I0
sg5
(lp113
g106
asg40
S'job_19601101_0_6_clean'
p114
sg42
(lp115
g16
asg54
I2
sg55
I0
sbasg54
I1
sg55
I0
sbag19
asg54
I0
sg55
I0
sbag99
asg40
S'job_19601101_0_7_sim'
p116
sg42
(lp117
(iJob
Job
p118
(dp119
g3
I0
sg4
I0
sg5
(lp120
g19
asg40
S'job_19601101_0_7_post'
p121
sg42
(lp122
(iJob
Job
p123
(dp124
g3
I0
sg4
I0
sg5
(lp125
g118
asg40
S'job_19601101_0_7_clean'
p126
sg42
(lp127
g13
asg54
I2
sg55
I0
sbasg54
I1
sg55
I0
sbag16
asg54
I0
sg55
I0
sbag111
asg40
S'job_19601101_0_8_sim'
p128
sg42
(lp129
(iJob
Job
p130
(dp131
g3
I0
sg4
I0
sg5
(lp132
g16
asg40
S'job_19601101_0_8_post'
p133
sg42
(lp134
(iJob
Job
p135
(dp136
g3
I0
sg4
I0
sg5
(lp137
g130
asg40
S'job_19601101_0_8_clean'
p138
sg42
(lp139
g10
asg54
I2
sg55
I0
sbasg54
I1
sg55
I0
sbag13
asg54
I0
sg55
I0
sbag123
asg40
S'job_19601101_0_9_sim'
p140
sg42
(lp141
(iJob
Job
p142
(dp143
g3
I0
sg4
I0
sg5
(lp144
g13
asg40
S'job_19601101_0_9_post'
p145
sg42
(lp146
(iJob
Job
p147
(dp148
g3
I0
sg4
I0
sg5
(lp149
g142
asg40
S'job_19601101_0_9_clean'
p150
sg42
(lp151
(iJob
Job
p152
(dp153
g3
I0
sg4
I0
sg5
(lp154
g10
ag147
asg40
S'job_19601101_0_11_sim'
p155
sg42
(lp156
(iJob
Job
p157
(dp158
g3
I0
sg4
I0
sg5
(lp159
g152
asg40
S'job_19601101_0_11_post'
p160
sg42
(lp161
(iJob
Job
p162
(dp163
g3
I0
sg4
I0
sg5
(lp164
g157
asg40
S'job_19601101_0_11_clean'
p165
sg42
(lp166
(iJob
Job
p167
(dp168
g3
I0
sg4
I0
sg5
(lp169
(iJob
Job
p170
(dp171
g3
I0
sg4
I0
sg5
(lp172
g152
ag1
asg40
S'job_19601101_0_12_sim'
p173
sg42
(lp174
(iJob
Job
p175
(dp176
g3
I0
sg4
I0
sg5
(lp177
g170
asg40
S'job_19601101_0_12_post'
p178
sg42
(lp179
(iJob
Job
p180
(dp181
g3
I0
sg4
I0
sg5
(lp182
g175
asg40
S'job_19601101_0_12_clean'
p183
sg42
(lp184
(iJob
Job
p185
(dp186
g3
I0
sg4
I0
sg5
(lp187
g167
ag180
asg40
S'job_19601101_0_14_sim'
p188
sg42
(lp189
(iJob
Job
p190
(dp191
g3
I0
sg4
I0
sg5
(lp192
g185
asg40
S'job_19601101_0_14_post'
p193
sg42
(lp194
(iJob
Job
p195
(dp196
g3
I0
sg4
I0
sg5
(lp197
g190
asg40
S'job_19601101_0_14_clean'
p198
sg42
(lp199
sg54
I2
sg55
I0
sbasg54
I1
sg55
I0
sba(iJob
Job
p200
(dp201
g3
I0
sg4
I0
sg5
(lp202
g185
a(iJob
Job
p203
(dp204
g3
I0
sg4
I0
sg5
(lp205
(iJob
Job
p206
(dp207
g3
I0
sg4
I0
sg5
(lp208
g167
asg40
S'job_19601101_0_13_post'
p209
sg42
(lp210
g203
asg54
I1
sg55
I0
sbasg40
S'job_19601101_0_13_clean'
p211
sg42
(lp212
g200
asg54
I2
sg55
I0
sbasg40
S'job_19601101_0_15_sim'
p213
sg42
(lp214
(iJob
Job
p215
(dp216
g3
I0
sg4
I0
sg5
(lp217
g200
asg40
S'job_19601101_0_15_post'
p218
sg42
(lp219
(iJob
Job
p220
(dp221
g3
I0
sg4
I0
sg5
(lp222
g215
asg40
S'job_19601101_0_15_clean'
p223
sg42
(lp224
sg54
I2
sg55
I0
sbasg54
I1
sg55
I0
sbasg54
I0
sg55
I0
sbasg54
I0
sg55
I0
sbasg54
I2
sg55
I0
sbasg54
I1
sg55
I0
sbag167
asg54
I0
sg55
I0
sbag162
asg40
S'job_19601101_0_13_sim'
p225
sg42
(lp226
g206
ag185
asg54
I0
sg55
I0
sbasg54
I2
sg55
I0
sbasg54
I1
sg55
I0
sbag170
asg54
I0
sg55
I0
sbasg54
I2
sg55
I0
sbasg54
I1
sg55
I0
sbag10
asg54
I0
sg55
I0
sbag135
asg40
S'job_19601101_0_10_sim'
p227
sg42
(lp228
g7
ag152
asg54
I0
sg55
I0
sbasg40
S'job_19601101_0_10_post'
p229
sg42
(lp230
g1
asg54
I1
sg55
I0
sbasg40
S'job_19601101_0_10_clean'
p231
sg42
(lp232
g170
asg54
I2
sg55
I0
sbag7
ag10
ag162
ag157
ag152
ag180
ag175
ag170
ag203
ag206
ag167
ag195
ag190
ag185
ag220
ag215
ag200
ag49
a(iJob
Job
p233
(dp234
g3
I5
sg4
I0
sg5
(lp235
sg40
S'job_19601101_0_1_ini'
p236
sg42
(lp237
g37
asg54
I-1
sg55
I2831854
sbag44
ag37
ag63
ag58
ag34
ag75
ag70
ag31
ag87
ag82
ag28
ag99
ag94
ag25
ag111
ag106
ag22
ag123
ag118
ag19
ag135
ag130
ag16
ag147
ag142
ag13
a(iJob
Job
p238
(dp239
g3
I0
sg4
I0
sg5
(lp240
(iJob
Job
p241
(dp242
g3
I0
sg4
I0
sg5
(lp243
(iJob
Job
p244
(dp245
g3
I0
sg4
I0
sg5
(lp246
(iJob
Job
p247
(dp248
g3
I0
sg4
I0
sg5
(lp249
(iJob
Job
p250
(dp251
g3
I0
sg4
I0
sg5
(lp252
(iJob
Job
p253
(dp254
g3
I0
sg4
I0
sg5
(lp255
(iJob
Job
p256
(dp257
g3
I0
sg4
I0
sg5
(lp258
(iJob
Job
p259
(dp260
g3
I0
sg4
I0
sg5
(lp261
(iJob
Job
p262
(dp263
g3
I0
sg4
I0
sg5
(lp264
(iJob
Job
p265
(dp266
g3
I0
sg4
I0
sg5
(lp267
(iJob
Job
p268
(dp269
g3
I0
sg4
I0
sg5
(lp270
(iJob
Job
p271
(dp272
g3
I3
sg4
I3
sg5
(lp273
sg40
S'job_19601101_1_1_sim'
p274
sg42
(lp275
(iJob
Job
p276
(dp277
g3
I0
sg4
I0
sg5
(lp278
g271
asg40
S'job_19601101_1_1_post'
p279
sg42
(lp280
(iJob
Job
p281
(dp282
g3
I0
sg4
I0
sg5
(lp283
g276
asg40
S'job_19601101_1_1_clean'
p284
sg42
(lp285
g265
asg54
I2
sg55
I0
sbasg54
I1
sg55
I0
sbag268
asg54
I0
sg55
I2835607
sbasg40
S'job_19601101_1_2_sim'
p286
sg42
(lp287
(iJob
Job
p288
(dp289
g3
I0
sg4
I0
sg5
(lp290
g268
asg40
S'job_19601101_1_2_post'
p291
sg42
(lp292
(iJob
Job
p293
(dp294
g3
I0
sg4
I0
sg5
(lp295
g288
asg40
S'job_19601101_1_2_clean'
p296
sg42
(lp297
g262
asg54
I2
sg55
I0
sbasg54
I1
sg55
I0
sbag265
asg54
I0
sg55
I0
sbag281
asg40
S'job_19601101_1_3_sim'
p298
sg42
(lp299
(iJob
Job
p300
(dp301
g3
I0
sg4
I0
sg5
(lp302
g265
asg40
S'job_19601101_1_3_post'
p303
sg42
(lp304
(iJob
Job
p305
(dp306
g3
I0
sg4
I0
sg5
(lp307
g300
asg40
S'job_19601101_1_3_clean'
p308
sg42
(lp309
g259
asg54
I2
sg55
I0
sbasg54
I1
sg55
I0
sbag262
asg54
I0
sg55
I0
sbag293
asg40
S'job_19601101_1_4_sim'
p310
sg42
(lp311
(iJob
Job
p312
(dp313
g3
I0
sg4
I0
sg5
(lp314
g262
asg40
S'job_19601101_1_4_post'
p315
sg42
(lp316
(iJob
Job
p317
(dp318
g3
I0
sg4
I0
sg5
(lp319
g312
asg40
S'job_19601101_1_4_clean'
p320
sg42
(lp321
g256
asg54
I2
sg55
I0
sbasg54
I1
sg55
I0
sbag259
asg54
I0
sg55
I0
sbag305
asg40
S'job_19601101_1_5_sim'
p322
sg42
(lp323
(iJob
Job
p324
(dp325
g3
I0
sg4
I0
sg5
(lp326
g259
asg40
S'job_19601101_1_5_post'
p327
sg42
(lp328
(iJob
Job
p329
(dp330
g3
I0
sg4
I0
sg5
(lp331
g324
asg40
S'job_19601101_1_5_clean'
p332
sg42
(lp333
g253
asg54
I2
sg55
I0
sbasg54
I1
sg55
I0
sbag256
asg54
I0
sg55
I0
sbag317
asg40
S'job_19601101_1_6_sim'
p334
sg42
(lp335
(iJob
Job
p336
(dp337
g3
I0
sg4
I0
sg5
(lp338
g256
asg40
S'job_19601101_1_6_post'
p339
sg42
(lp340
(iJob
Job
p341
(dp342
g3
I0
sg4
I0
sg5
(lp343
g336
asg40
S'job_19601101_1_6_clean'
p344
sg42
(lp345
g250
asg54
I2
sg55
I0
sbasg54
I1
sg55
I0
sbag253
asg54
I0
sg55
I0
sbag329
asg40
S'job_19601101_1_7_sim'
p346
sg42
(lp347
(iJob
Job
p348
(dp349
g3
I0
sg4
I0
sg5
(lp350
g253
asg40
S'job_19601101_1_7_post'
p351
sg42
(lp352
(iJob
Job
p353
(dp354
g3
I0
sg4
I0
sg5
(lp355
g348
asg40
S'job_19601101_1_7_clean'
p356
sg42
(lp357
g247
asg54
I2
sg55
I0
sbasg54
I1
sg55
I0
sbag250
asg54
I0
sg55
I0
sbag341
asg40
S'job_19601101_1_8_sim'
p358
sg42
(lp359
(iJob
Job
p360
(dp361
g3
I0
sg4
I0
sg5
(lp362
g250
asg40
S'job_19601101_1_8_post'
p363
sg42
(lp364
(iJob
Job
p365
(dp366
g3
I0
sg4
I0
sg5
(lp367
g360
asg40
S'job_19601101_1_8_clean'
p368
sg42
(lp369
g244
asg54
I2
sg55
I0
sbasg54
I1
sg55
I0
sbag247
asg54
I0
sg55
I0
sbag353
asg40
S'job_19601101_1_9_sim'
p370
sg42
(lp371
(iJob
Job
p372
(dp373
g3
I0
sg4
I0
sg5
(lp374
g247
asg40
S'job_19601101_1_9_post'
p375
sg42
(lp376
(iJob
Job
p377
(dp378
g3
I0
sg4
I0
sg5
(lp379
g372
asg40
S'job_19601101_1_9_clean'
p380
sg42
(lp381
(iJob
Job
p382
(dp383
g3
I0
sg4
I0
sg5
(lp384
g244
ag377
asg40
S'job_19601101_1_11_sim'
p385
sg42
(lp386
(iJob
Job
p387
(dp388
g3
I0
sg4
I0
sg5
(lp389
g382
asg40
S'job_19601101_1_11_post'
p390
sg42
(lp391
(iJob
Job
p392
(dp393
g3
I0
sg4
I0
sg5
(lp394
g387
asg40
S'job_19601101_1_11_clean'
p395
sg42
(lp396
(iJob
Job
p397
(dp398
g3
I0
sg4
I0
sg5
(lp399
(iJob
Job
p400
(dp401
g3
I0
sg4
I0
sg5
(lp402
g382
ag238
asg40
S'job_19601101_1_12_sim'
p403
sg42
(lp404
(iJob
Job
p405
(dp406
g3
I0
sg4
I0
sg5
(lp407
g400
asg40
S'job_19601101_1_12_post'
p408
sg42
(lp409
(iJob
Job
p410
(dp411
g3
I0
sg4
I0
sg5
(lp412
g405
asg40
S'job_19601101_1_12_clean'
p413
sg42
(lp414
(iJob
Job
p415
(dp416
g3
I0
sg4
I0
sg5
(lp417
g397
ag410
asg40
S'job_19601101_1_14_sim'
p418
sg42
(lp419
(iJob
Job
p420
(dp421
g3
I0
sg4
I0
sg5
(lp422
g415
asg40
S'job_19601101_1_14_post'
p423
sg42
(lp424
(iJob
Job
p425
(dp426
g3
I0
sg4
I0
sg5
(lp427
g420
asg40
S'job_19601101_1_14_clean'
p428
sg42
(lp429
sg54
I2
sg55
I0
sbasg54
I1
sg55
I0
sba(iJob
Job
p430
(dp431
g3
I0
sg4
I0
sg5
(lp432
g415
a(iJob
Job
p433
(dp434
g3
I0
sg4
I0
sg5
(lp435
(iJob
Job
p436
(dp437
g3
I0
sg4
I0
sg5
(lp438
g397
asg40
S'job_19601101_1_13_post'
p439
sg42
(lp440
g433
asg54
I1
sg55
I0
sbasg40
S'job_19601101_1_13_clean'
p441
sg42
(lp442
g430
asg54
I2
sg55
I0
sbasg40
S'job_19601101_1_15_sim'
p443
sg42
(lp444
(iJob
Job
p445
(dp446
g3
I0
sg4
I0
sg5
(lp447
g430
asg40
S'job_19601101_1_15_post'
p448
sg42
(lp449
(iJob
Job
p450
(dp451
g3
I0
sg4
I0
sg5
(lp452
g445
asg40
S'job_19601101_1_15_clean'
p453
sg42
(lp454
sg54
I2
sg55
I0
sbasg54
I1
sg55
I0
sbasg54
I0
sg55
I0
sbasg54
I0
sg55
I0
sbasg54
I2
sg55
I0
sbasg54
I1
sg55
I0
sbag397
asg54
I0
sg55
I0
sbag392
asg40
S'job_19601101_1_13_sim'
p455
sg42
(lp456
g436
ag415
asg54
I0
sg55
I0
sbasg54
I2
sg55
I0
sbasg54
I1
sg55
I0
sbag400
asg54
I0
sg55
I0
sbasg54
I2
sg55
I0
sbasg54
I1
sg55
I0
sbag244
asg54
I0
sg55
I0
sbag365
asg40
S'job_19601101_1_10_sim'
p457
sg42
(lp458
g241
ag382
asg54
I0
sg55
I0
sbasg40
S'job_19601101_1_10_post'
p459
sg42
(lp460
g238
asg54
I1
sg55
I0
sbasg40
S'job_19601101_1_10_clean'
p461
sg42
(lp462
g400
asg54
I2
sg55
I0
sbag241
ag244
ag392
ag387
ag382
ag410
ag405
ag400
ag433
ag436
ag397
ag425
ag420
ag415
ag450
ag445
ag430
ag281
a(iJob
Job
p463
(dp464
g3
I5
sg4
I0
sg5
(lp465
sg40
S'job_19601101_1_1_ini'
p466
sg42
(lp467
g271
asg54
I-1
sg55
I2831853
sbag276
ag271
ag293
ag288
ag268
ag305
ag300
ag265
ag317
ag312
ag262
ag329
ag324
ag259
ag341
ag336
ag256
ag353
ag348
ag253
ag365
ag360
ag250
ag377
ag372
ag247
a.