(lp0
(iJob
Job
p1
(dp2
S'status'
p3
I1
sS'name'
p4
S'scalingtest_IFS_scal_4_1_NEMO_1_1_FREQ_3'
p5
sS'id'
p6
I0
sS'failcount'
p7
I0
sS'parents'
p8
(lp9
sS'children'
p10
(lp11
sS'jobtype'
p12
I0
sba(iJob
Job
p13
(dp14
g3
I3
sg4
S'scalingtest_IFS_scal_4_1_NEMO_2_1_FREQ_3'
p15
sg6
I2755096
sg7
I0
sg8
(lp16
sg10
(lp17
sg12
I0
sba(iJob
Job
p18
(dp19
g3
I3
sg4
S'scalingtest_IFS_scal_4_1_NEMO_2_2_FREQ_3'
p20
sg6
I2755095
sg7
I0
sg8
(lp21
sg10
(lp22
sg12
I0
sba(iJob
Job
p23
(dp24
g3
I4
sg4
S'scalingtest_IFS_scal_4_1_NEMO_4_2_FREQ_3'
p25
sg6
I2755094
sg7
I0
sg8
(lp26
sg10
(lp27
sg12
I0
sba(iJob
Job
p28
(dp29
g3
I3
sg4
S'scalingtest_IFS_scal_4_1_NEMO_4_4_FREQ_3'
p30
sg6
I2755093
sg7
I0
sg8
(lp31
sg10
(lp32
sg12
I0
sba(iJob
Job
p33
(dp34
g3
I3
sg4
S'scalingtest_IFS_scal_4_1_NEMO_8_4_FREQ_3'
p35
sg6
I2755092
sg7
I0
sg8
(lp36
sg10
(lp37
sg12
I0
sba(iJob
Job
p38
(dp39
g3
I3
sg4
S'scalingtest_IFS_scal_4_1_NEMO_8_8_FREQ_3'
p40
sg6
I2755091
sg7
I0
sg8
(lp41
sg10
(lp42
sg12
I0
sba(iJob
Job
p43
(dp44
g3
I4
sg4
S'scalingtest_IFS_scal_8_1_NEMO_1_1_FREQ_3'
p45
sg6
I2755090
sg7
I0
sg8
(lp46
sg10
(lp47
sg12
I0
sba(iJob
Job
p48
(dp49
g3
I4
sg4
S'scalingtest_IFS_scal_8_1_NEMO_2_1_FREQ_3'
p50
sg6
I2755089
sg7
I0
sg8
(lp51
sg10
(lp52
sg12
I0
sba(iJob
Job
p53
(dp54
g3
I4
sg4
S'scalingtest_IFS_scal_8_1_NEMO_2_2_FREQ_3'
p55
sg6
I2755088
sg7
I0
sg8
(lp56
sg10
(lp57
sg12
I0
sba(iJob
Job
p58
(dp59
g3
I4
sg4
S'scalingtest_IFS_scal_8_1_NEMO_4_2_FREQ_3'
p60
sg6
I2755087
sg7
I0
sg8
(lp61
sg10
(lp62
sg12
I0
sba(iJob
Job
p63
(dp64
g3
I4
sg4
S'scalingtest_IFS_scal_8_1_NEMO_4_4_FREQ_3'
p65
sg6
I2755086
sg7
I0
sg8
(lp66
sg10
(lp67
sg12
I0
sba(iJob
Job
p68
(dp69
g3
I4
sg4
S'scalingtest_IFS_scal_8_1_NEMO_8_4_FREQ_3'
p70
sg6
I2755085
sg7
I0
sg8
(lp71
sg10
(lp72
sg12
I0
sba(iJob
Job
p73
(dp74
g3
I4
sg4
S'scalingtest_IFS_scal_8_1_NEMO_8_8_FREQ_3'
p75
sg6
I2755084
sg7
I0
sg8
(lp76
sg10
(lp77
sg12
I0
sba(iJob
Job
p78
(dp79
g3
I4
sg4
S'scalingtest_IFS_scal_16_1_NEMO_1_1_FREQ_3'
p80
sg6
I2755083
sg7
I0
sg8
(lp81
sg10
(lp82
sg12
I0
sba(iJob
Job
p83
(dp84
g3
I4
sg4
S'scalingtest_IFS_scal_16_1_NEMO_2_1_FREQ_3'
p85
sg6
I2755081
sg7
I0
sg8
(lp86
sg10
(lp87
sg12
I0
sba(iJob
Job
p88
(dp89
g3
I5
sg4
S'scalingtest_IFS_scal_16_1_NEMO_2_2_FREQ_3'
p90
sg6
I2755080
sg7
I0
sg8
(lp91
sg10
(lp92
sg12
I0
sba(iJob
Job
p93
(dp94
g3
I5
sg4
S'scalingtest_IFS_scal_16_1_NEMO_4_2_FREQ_3'
p95
sg6
I2755079
sg7
I0
sg8
(lp96
sg10
(lp97
sg12
I0
sba(iJob
Job
p98
(dp99
g3
I5
sg4
S'scalingtest_IFS_scal_16_1_NEMO_4_4_FREQ_3'
p100
sg6
I2755078
sg7
I0
sg8
(lp101
sg10
(lp102
sg12
I0
sba(iJob
Job
p103
(dp104
g3
I5
sg4
S'scalingtest_IFS_scal_16_1_NEMO_8_4_FREQ_3'
p105
sg6
I2755077
sg7
I0
sg8
(lp106
sg10
(lp107
sg12
I0
sba(iJob
Job
p108
(dp109
g3
I4
sg4
S'scalingtest_IFS_scal_16_1_NEMO_8_8_FREQ_3'
p110
sg6
I2755072
sg7
I0
sg8
(lp111
sg10
(lp112
sg12
I0
sba(iJob
Job
p113
(dp114
g3
I4
sg4
S'scalingtest_IFS_scal_28_1_NEMO_1_1_FREQ_3'
p115
sg6
I2755070
sg7
I0
sg8
(lp116
sg10
(lp117
sg12
I0
sba(iJob
Job
p118
(dp119
g3
I4
sg4
S'scalingtest_IFS_scal_28_1_NEMO_2_1_FREQ_3'
p120
sg6
I2755069
sg7
I0
sg8
(lp121
sg10
(lp122
sg12
I0
sba(iJob
Job
p123
(dp124
g3
I5
sg4
S'scalingtest_IFS_scal_28_1_NEMO_2_2_FREQ_3'
p125
sg6
I2755062
sg7
I0
sg8
(lp126
sg10
(lp127
sg12
I0
sba(iJob
Job
p128
(dp129
g3
I5
sg4
S'scalingtest_IFS_scal_28_1_NEMO_4_2_FREQ_3'
p130
sg6
I2755060
sg7
I0
sg8
(lp131
sg10
(lp132
sg12
I0
sba(iJob
Job
p133
(dp134
g3
I5
sg4
S'scalingtest_IFS_scal_28_1_NEMO_4_4_FREQ_3'
p135
sg6
I2755059
sg7
I0
sg8
(lp136
sg10
(lp137
sg12
I0
sba(iJob
Job
p138
(dp139
g3
I5
sg4
S'scalingtest_IFS_scal_28_1_NEMO_8_4_FREQ_3'
p140
sg6
I2755058
sg7
I0
sg8
(lp141
sg10
(lp142
sg12
I0
sba(iJob
Job
p143
(dp144
g3
I5
sg4
S'scalingtest_IFS_scal_28_1_NEMO_8_8_FREQ_3'
p145
sg6
I2755057
sg7
I0
sg8
(lp146
sg10
(lp147
sg12
I0
sba(iJob
Job
p148
(dp149
g3
I4
sg4
S'scalingtest_IFS_scal_32_1_NEMO_1_1_FREQ_3'
p150
sg6
I2755050
sg7
I0
sg8
(lp151
sg10
(lp152
sg12
I0
sba(iJob
Job
p153
(dp154
g3
I5
sg4
S'scalingtest_IFS_scal_32_1_NEMO_2_1_FREQ_3'
p155
sg6
I2755049
sg7
I0
sg8
(lp156
sg10
(lp157
sg12
I0
sba(iJob
Job
p158
(dp159
g3
I5
sg4
S'scalingtest_IFS_scal_32_1_NEMO_2_2_FREQ_3'
p160
sg6
I2755048
sg7
I0
sg8
(lp161
sg10
(lp162
sg12
I0
sba(iJob
Job
p163
(dp164
g3
I5
sg4
S'scalingtest_IFS_scal_32_1_NEMO_4_2_FREQ_3'
p165
sg6
I2755046
sg7
I0
sg8
(lp166
sg10
(lp167
sg12
I0
sba(iJob
Job
p168
(dp169
g3
I5
sg4
S'scalingtest_IFS_scal_32_1_NEMO_4_4_FREQ_3'
p170
sg6
I2755045
sg7
I0
sg8
(lp171
sg10
(lp172
sg12
I0
sba(iJob
Job
p173
(dp174
g3
I5
sg4
S'scalingtest_IFS_scal_32_1_NEMO_8_4_FREQ_3'
p175
sg6
I2755042
sg7
I0
sg8
(lp176
sg10
(lp177
sg12
I0
sba(iJob
Job
p178
(dp179
g3
I5
sg4
S'scalingtest_IFS_scal_32_1_NEMO_8_8_FREQ_3'
p180
sg6
I2755027
sg7
I0
sg8
(lp181
sg10
(lp182
sg12
I0
sba(iJob
Job
p183
(dp184
g3
I5
sg4
S'scalingtest_IFS_scal_32_2_NEMO_1_1_FREQ_3'
p185
sg6
I2755026
sg7
I0
sg8
(lp186
sg10
(lp187
sg12
I0
sba(iJob
Job
p188
(dp189
g3
I5
sg4
S'scalingtest_IFS_scal_32_2_NEMO_2_1_FREQ_3'
p190
sg6
I2755025
sg7
I0
sg8
(lp191
sg10
(lp192
sg12
I0
sba(iJob
Job
p193
(dp194
g3
I5
sg4
S'scalingtest_IFS_scal_32_2_NEMO_2_2_FREQ_3'
p195
sg6
I2755018
sg7
I0
sg8
(lp196
sg10
(lp197
sg12
I0
sba(iJob
Job
p198
(dp199
g3
I5
sg4
S'scalingtest_IFS_scal_32_2_NEMO_4_2_FREQ_3'
p200
sg6
I2755002
sg7
I0
sg8
(lp201
sg10
(lp202
sg12
I0
sba(iJob
Job
p203
(dp204
g3
I5
sg4
S'scalingtest_IFS_scal_32_2_NEMO_4_4_FREQ_3'
p205
sg6
I2754993
sg7
I0
sg8
(lp206
sg10
(lp207
sg12
I0
sba(iJob
Job
p208
(dp209
g3
I5
sg4
S'scalingtest_IFS_scal_32_2_NEMO_8_4_FREQ_3'
p210
sg6
I2754984
sg7
I0
sg8
(lp211
sg10
(lp212
sg12
I0
sba(iJob
Job
p213
(dp214
g3
I5
sg4
S'scalingtest_IFS_scal_32_2_NEMO_8_8_FREQ_3'
p215
sg6
I2754975
sg7
I0
sg8
(lp216
sg10
(lp217
sg12
I0
sba(iJob
Job
p218
(dp219
g3
I5
sg4
S'scalingtest_IFS_scal_32_4_NEMO_1_1_FREQ_3'
p220
sg6
I2754964
sg7
I0
sg8
(lp221
sg10
(lp222
sg12
I0
sba(iJob
Job
p223
(dp224
g3
I5
sg4
S'scalingtest_IFS_scal_32_4_NEMO_2_1_FREQ_3'
p225
sg6
I2754954
sg7
I0
sg8
(lp226
sg10
(lp227
sg12
I0
sba(iJob
Job
p228
(dp229
g3
I5
sg4
S'scalingtest_IFS_scal_32_4_NEMO_2_2_FREQ_3'
p230
sg6
I2754948
sg7
I0
sg8
(lp231
sg10
(lp232
sg12
I0
sba(iJob
Job
p233
(dp234
g3
I5
sg4
S'scalingtest_IFS_scal_32_4_NEMO_4_2_FREQ_3'
p235
sg6
I2754909
sg7
I0
sg8
(lp236
sg10
(lp237
sg12
I0
sba(iJob
Job
p238
(dp239
g3
I5
sg4
S'scalingtest_IFS_scal_32_4_NEMO_4_4_FREQ_3'
p240
sg6
I2754908
sg7
I0
sg8
(lp241
sg10
(lp242
sg12
I0
sba(iJob
Job
p243
(dp244
g3
I5
sg4
S'scalingtest_IFS_scal_32_4_NEMO_8_4_FREQ_3'
p245
sg6
I2754907
sg7
I0
sg8
(lp246
sg10
(lp247
sg12
I0
sba(iJob
Job
p248
(dp249
g3
I5
sg4
S'scalingtest_IFS_scal_32_4_NEMO_8_8_FREQ_3'
p250
sg6
I2754906
sg7
I0
sg8
(lp251
sg10
(lp252
sg12
I0
sba.