(lp0
(iJob
Job
p1
(dp2
S'status'
p3
I3
sS'name'
p4
S'job_19601101_0_1_ini'
p5
sS'id'
p6
I2825012
sS'failcount'
p7
I0
sS'parents'
p8
(lp9
sS'children'
p10
(lp11
(iJob
Job
p12
(dp13
g3
I0
sg4
S'job_19601101_0_1_sim'
p14
sg6
I0
sg7
I0
sg8
(lp15
g1
asg10
(lp16
(iJob
Job
p17
(dp18
g3
I0
sg4
S'job_19601101_0_1_post'
p19
sg6
I0
sg7
I0
sg8
(lp20
g12
asg10
(lp21
(iJob
Job
p22
(dp23
g3
I0
sg4
S'job_19601101_0_1_clean'
p24
sg6
I0
sg7
I0
sg8
(lp25
g17
asg10
(lp26
(iJob
Job
p27
(dp28
g3
I0
sg4
S'job_19601101_0_3_sim'
p29
sg6
I0
sg7
I0
sg8
(lp30
(iJob
Job
p31
(dp32
g3
I0
sg4
S'job_19601101_0_2_sim'
p33
sg6
I0
sg7
I0
sg8
(lp34
g12
asg10
(lp35
(iJob
Job
p36
(dp37
g3
I0
sg4
S'job_19601101_0_2_post'
p38
sg6
I0
sg7
I0
sg8
(lp39
g31
asg10
(lp40
(iJob
Job
p41
(dp42
g3
I0
sg4
S'job_19601101_0_2_clean'
p43
sg6
I0
sg7
I0
sg8
(lp44
g36
asg10
(lp45
(iJob
Job
p46
(dp47
g3
I0
sg4
S'job_19601101_0_4_sim'
p48
sg6
I0
sg7
I0
sg8
(lp49
g27
ag41
asg10
(lp50
(iJob
Job
p51
(dp52
g3
I0
sg4
S'job_19601101_0_4_post'
p53
sg6
I0
sg7
I0
sg8
(lp54
g46
asg10
(lp55
(iJob
Job
p56
(dp57
g3
I0
sg4
S'job_19601101_0_4_clean'
p58
sg6
I0
sg7
I0
sg8
(lp59
g51
asg10
(lp60
sS'jobtype'
p61
I2
sbasg61
I1
sba(iJob
Job
p62
(dp63
g3
I0
sg4
S'job_19601101_0_5_sim'
p64
sg6
I0
sg7
I0
sg8
(lp65
g46
a(iJob
Job
p66
(dp67
g3
I0
sg4
S'job_19601101_0_3_clean'
p68
sg6
I0
sg7
I0
sg8
(lp69
(iJob
Job
p70
(dp71
g3
I0
sg4
S'job_19601101_0_3_post'
p72
sg6
I0
sg7
I0
sg8
(lp73
g27
asg10
(lp74
g66
asg61
I1
sbasg10
(lp75
g62
asg61
I2
sbasg10
(lp76
(iJob
Job
p77
(dp78
g3
I0
sg4
S'job_19601101_0_5_post'
p79
sg6
I0
sg7
I0
sg8
(lp80
g62
asg10
(lp81
(iJob
Job
p82
(dp83
g3
I0
sg4
S'job_19601101_0_5_clean'
p84
sg6
I0
sg7
I0
sg8
(lp85
g77
asg10
(lp86
sg61
I2
sbasg61
I1
sbasg61
I0
sbasg61
I0
sbasg61
I2
sbasg61
I1
sbag27
asg61
I0
sbag22
asg10
(lp87
g70
ag46
asg61
I0
sbasg61
I2
sbasg61
I1
sbag31
asg61
I0
sbasg61
I3
sbag12
ag17
ag22
ag31
ag36
ag41
ag27
ag70
ag66
ag46
ag51
ag56
ag62
ag77
ag82
a(iJob
Job
p88
(dp89
g3
I4
sg4
S'job_19601101_1_1_ini'
p90
sg6
I2825011
sg7
I0
sg8
(lp91
sg10
(lp92
(iJob
Job
p93
(dp94
g3
I0
sg4
S'job_19601101_1_1_sim'
p95
sg6
I0
sg7
I0
sg8
(lp96
g88
asg10
(lp97
(iJob
Job
p98
(dp99
g3
I0
sg4
S'job_19601101_1_1_post'
p100
sg6
I0
sg7
I0
sg8
(lp101
g93
asg10
(lp102
(iJob
Job
p103
(dp104
g3
I0
sg4
S'job_19601101_1_1_clean'
p105
sg6
I0
sg7
I0
sg8
(lp106
g98
asg10
(lp107
(iJob
Job
p108
(dp109
g3
I0
sg4
S'job_19601101_1_3_sim'
p110
sg6
I0
sg7
I0
sg8
(lp111
(iJob
Job
p112
(dp113
g3
I0
sg4
S'job_19601101_1_2_sim'
p114
sg6
I0
sg7
I0
sg8
(lp115
g93
asg10
(lp116
(iJob
Job
p117
(dp118
g3
I0
sg4
S'job_19601101_1_2_post'
p119
sg6
I0
sg7
I0
sg8
(lp120
g112
asg10
(lp121
(iJob
Job
p122
(dp123
g3
I0
sg4
S'job_19601101_1_2_clean'
p124
sg6
I0
sg7
I0
sg8
(lp125
g117
asg10
(lp126
(iJob
Job
p127
(dp128
g3
I0
sg4
S'job_19601101_1_4_sim'
p129
sg6
I0
sg7
I0
sg8
(lp130
g108
ag122
asg10
(lp131
(iJob
Job
p132
(dp133
g3
I0
sg4
S'job_19601101_1_4_post'
p134
sg6
I0
sg7
I0
sg8
(lp135
g127
asg10
(lp136
(iJob
Job
p137
(dp138
g3
I0
sg4
S'job_19601101_1_4_clean'
p139
sg6
I0
sg7
I0
sg8
(lp140
g132
asg10
(lp141
sg61
I2
sbasg61
I1
sba(iJob
Job
p142
(dp143
g3
I0
sg4
S'job_19601101_1_5_sim'
p144
sg6
I0
sg7
I0
sg8
(lp145
g127
a(iJob
Job
p146
(dp147
g3
I0
sg4
S'job_19601101_1_3_clean'
p148
sg6
I0
sg7
I0
sg8
(lp149
(iJob
Job
p150
(dp151
g3
I0
sg4
S'job_19601101_1_3_post'
p152
sg6
I0
sg7
I0
sg8
(lp153
g108
asg10
(lp154
g146
asg61
I1
sbasg10
(lp155
g142
asg61
I2
sbasg10
(lp156
(iJob
Job
p157
(dp158
g3
I0
sg4
S'job_19601101_1_5_post'
p159
sg6
I0
sg7
I0
sg8
(lp160
g142
asg10
(lp161
(iJob
Job
p162
(dp163
g3
I0
sg4
S'job_19601101_1_5_clean'
p164
sg6
I0
sg7
I0
sg8
(lp165
g157
asg10
(lp166
sg61
I2
sbasg61
I1
sbasg61
I0
sbasg61
I0
sbasg61
I2
sbasg61
I1
sbag108
asg61
I0
sbag103
asg10
(lp167
g150
ag127
asg61
I0
sbasg61
I2
sbasg61
I1
sbag112
asg61
I0
sbasg61
I3
sbag93
ag98
ag103
ag112
ag117
ag122
ag108
ag150
ag146
ag127
ag132
ag137
ag142
ag157
ag162
a(iJob
Job
p168
(dp169
g3
I4
sg4
S'job_19601101_2_1_ini'
p170
sg6
I2825010
sg7
I0
sg8
(lp171
sg10
(lp172
(iJob
Job
p173
(dp174
g3
I0
sg4
S'job_19601101_2_1_sim'
p175
sg6
I0
sg7
I0
sg8
(lp176
g168
asg10
(lp177
(iJob
Job
p178
(dp179
g3
I0
sg4
S'job_19601101_2_1_post'
p180
sg6
I0
sg7
I0
sg8
(lp181
g173
asg10
(lp182
(iJob
Job
p183
(dp184
g3
I0
sg4
S'job_19601101_2_1_clean'
p185
sg6
I0
sg7
I0
sg8
(lp186
g178
asg10
(lp187
(iJob
Job
p188
(dp189
g3
I0
sg4
S'job_19601101_2_3_sim'
p190
sg6
I0
sg7
I0
sg8
(lp191
(iJob
Job
p192
(dp193
g3
I0
sg4
S'job_19601101_2_2_sim'
p194
sg6
I0
sg7
I0
sg8
(lp195
g173
asg10
(lp196
(iJob
Job
p197
(dp198
g3
I0
sg4
S'job_19601101_2_2_post'
p199
sg6
I0
sg7
I0
sg8
(lp200
g192
asg10
(lp201
(iJob
Job
p202
(dp203
g3
I0
sg4
S'job_19601101_2_2_clean'
p204
sg6
I0
sg7
I0
sg8
(lp205
g197
asg10
(lp206
(iJob
Job
p207
(dp208
g3
I0
sg4
S'job_19601101_2_4_sim'
p209
sg6
I0
sg7
I0
sg8
(lp210
g188
ag202
asg10
(lp211
(iJob
Job
p212
(dp213
g3
I0
sg4
S'job_19601101_2_4_post'
p214
sg6
I0
sg7
I0
sg8
(lp215
g207
asg10
(lp216
(iJob
Job
p217
(dp218
g3
I0
sg4
S'job_19601101_2_4_clean'
p219
sg6
I0
sg7
I0
sg8
(lp220
g212
asg10
(lp221
sg61
I2
sbasg61
I1
sba(iJob
Job
p222
(dp223
g3
I0
sg4
S'job_19601101_2_5_sim'
p224
sg6
I0
sg7
I0
sg8
(lp225
g207
a(iJob
Job
p226
(dp227
g3
I0
sg4
S'job_19601101_2_3_clean'
p228
sg6
I0
sg7
I0
sg8
(lp229
(iJob
Job
p230
(dp231
g3
I0
sg4
S'job_19601101_2_3_post'
p232
sg6
I0
sg7
I0
sg8
(lp233
g188
asg10
(lp234
g226
asg61
I1
sbasg10
(lp235
g222
asg61
I2
sbasg10
(lp236
(iJob
Job
p237
(dp238
g3
I0
sg4
S'job_19601101_2_5_post'
p239
sg6
I0
sg7
I0
sg8
(lp240
g222
asg10
(lp241
(iJob
Job
p242
(dp243
g3
I0
sg4
S'job_19601101_2_5_clean'
p244
sg6
I0
sg7
I0
sg8
(lp245
g237
asg10
(lp246
sg61
I2
sbasg61
I1
sbasg61
I0
sbasg61
I0
sbasg61
I2
sbasg61
I1
sbag188
asg61
I0
sbag183
asg10
(lp247
g230
ag207
asg61
I0
sbasg61
I2
sbasg61
I1
sbag192
asg61
I0
sbasg61
I3
sbag173
ag178
ag183
ag192
ag197
ag202
ag188
ag230
ag226
ag207
ag212
ag217
ag222
ag237
ag242
a(iJob
Job
p248
(dp249
g3
I4
sg4
S'job_19601101_3_1_ini'
p250
sg6
I2824959
sg7
I0
sg8
(lp251
sg10
(lp252
(iJob
Job
p253
(dp254
g3
I0
sg4
S'job_19601101_3_1_sim'
p255
sg6
I0
sg7
I0
sg8
(lp256
g248
asg10
(lp257
(iJob
Job
p258
(dp259
g3
I0
sg4
S'job_19601101_3_1_post'
p260
sg6
I0
sg7
I0
sg8
(lp261
g253
asg10
(lp262
(iJob
Job
p263
(dp264
g3
I0
sg4
S'job_19601101_3_1_clean'
p265
sg6
I0
sg7
I0
sg8
(lp266
g258
asg10
(lp267
(iJob
Job
p268
(dp269
g3
I0
sg4
S'job_19601101_3_3_sim'
p270
sg6
I0
sg7
I0
sg8
(lp271
(iJob
Job
p272
(dp273
g3
I0
sg4
S'job_19601101_3_2_sim'
p274
sg6
I0
sg7
I0
sg8
(lp275
g253
asg10
(lp276
(iJob
Job
p277
(dp278
g3
I0
sg4
S'job_19601101_3_2_post'
p279
sg6
I0
sg7
I0
sg8
(lp280
g272
asg10
(lp281
(iJob
Job
p282
(dp283
g3
I0
sg4
S'job_19601101_3_2_clean'
p284
sg6
I0
sg7
I0
sg8
(lp285
g277
asg10
(lp286
(iJob
Job
p287
(dp288
g3
I0
sg4
S'job_19601101_3_4_sim'
p289
sg6
I0
sg7
I0
sg8
(lp290
g268
ag282
asg10
(lp291
(iJob
Job
p292
(dp293
g3
I0
sg4
S'job_19601101_3_4_post'
p294
sg6
I0
sg7
I0
sg8
(lp295
g287
asg10
(lp296
(iJob
Job
p297
(dp298
g3
I0
sg4
S'job_19601101_3_4_clean'
p299
sg6
I0
sg7
I0
sg8
(lp300
g292
asg10
(lp301
sg61
I2
sbasg61
I1
sba(iJob
Job
p302
(dp303
g3
I0
sg4
S'job_19601101_3_5_sim'
p304
sg6
I0
sg7
I0
sg8
(lp305
g287
a(iJob
Job
p306
(dp307
g3
I0
sg4
S'job_19601101_3_3_clean'
p308
sg6
I0
sg7
I0
sg8
(lp309
(iJob
Job
p310
(dp311
g3
I0
sg4
S'job_19601101_3_3_post'
p312
sg6
I0
sg7
I0
sg8
(lp313
g268
asg10
(lp314
g306
asg61
I1
sbasg10
(lp315
g302
asg61
I2
sbasg10
(lp316
(iJob
Job
p317
(dp318
g3
I0
sg4
S'job_19601101_3_5_post'
p319
sg6
I0
sg7
I0
sg8
(lp320
g302
asg10
(lp321
(iJob
Job
p322
(dp323
g3
I0
sg4
S'job_19601101_3_5_clean'
p324
sg6
I0
sg7
I0
sg8
(lp325
g317
asg10
(lp326
sg61
I2
sbasg61
I1
sbasg61
I0
sbasg61
I0
sbasg61
I2
sbasg61
I1
sbag268
asg61
I0
sbag263
asg10
(lp327
g310
ag287
asg61
I0
sbasg61
I2
sbasg61
I1
sbag272
asg61
I0
sbasg61
I3
sbag253
ag258
ag263
ag272
ag277
ag282
ag268
ag310
ag306
ag287
ag292
ag297
ag302
ag317
ag322
a(iJob
Job
p328
(dp329
g3
I5
sg4
S'job_19601101_4_1_ini'
p330
sg6
I2824958
sg7
I0
sg8
(lp331
sg10
(lp332
(iJob
Job
p333
(dp334
g3
I4
sg4
S'job_19601101_4_1_sim'
p335
sg6
I2825036
sg7
I0
sg8
(lp336
sg10
(lp337
(iJob
Job
p338
(dp339
g3
I0
sg4
S'job_19601101_4_1_post'
p340
sg6
I0
sg7
I0
sg8
(lp341
g333
asg10
(lp342
(iJob
Job
p343
(dp344
g3
I0
sg4
S'job_19601101_4_1_clean'
p345
sg6
I0
sg7
I0
sg8
(lp346
g338
asg10
(lp347
(iJob
Job
p348
(dp349
g3
I0
sg4
S'job_19601101_4_3_sim'
p350
sg6
I0
sg7
I0
sg8
(lp351
(iJob
Job
p352
(dp353
g3
I0
sg4
S'job_19601101_4_2_sim'
p354
sg6
I0
sg7
I0
sg8
(lp355
g333
asg10
(lp356
(iJob
Job
p357
(dp358
g3
I0
sg4
S'job_19601101_4_2_post'
p359
sg6
I0
sg7
I0
sg8
(lp360
g352
asg10
(lp361
(iJob
Job
p362
(dp363
g3
I0
sg4
S'job_19601101_4_2_clean'
p364
sg6
I0
sg7
I0
sg8
(lp365
g357
asg10
(lp366
(iJob
Job
p367
(dp368
g3
I0
sg4
S'job_19601101_4_4_sim'
p369
sg6
I0
sg7
I0
sg8
(lp370
g348
ag362
asg10
(lp371
(iJob
Job
p372
(dp373
g3
I0
sg4
S'job_19601101_4_4_post'
p374
sg6
I0
sg7
I0
sg8
(lp375
g367
asg10
(lp376
(iJob
Job
p377
(dp378
g3
I0
sg4
S'job_19601101_4_4_clean'
p379
sg6
I0
sg7
I0
sg8
(lp380
g372
asg10
(lp381
sg61
I2
sbasg61
I1
sba(iJob
Job
p382
(dp383
g3
I0
sg4
S'job_19601101_4_5_sim'
p384
sg6
I0
sg7
I0
sg8
(lp385
g367
a(iJob
Job
p386
(dp387
g3
I0
sg4
S'job_19601101_4_3_clean'
p388
sg6
I0
sg7
I0
sg8
(lp389
(iJob
Job
p390
(dp391
g3
I0
sg4
S'job_19601101_4_3_post'
p392
sg6
I0
sg7
I0
sg8
(lp393
g348
asg10
(lp394
g386
asg61
I1
sbasg10
(lp395
g382
asg61
I2
sbasg10
(lp396
(iJob
Job
p397
(dp398
g3
I0
sg4
S'job_19601101_4_5_post'
p399
sg6
I0
sg7
I0
sg8
(lp400
g382
asg10
(lp401
(iJob
Job
p402
(dp403
g3
I0
sg4
S'job_19601101_4_5_clean'
p404
sg6
I0
sg7
I0
sg8
(lp405
g397
asg10
(lp406
sg61
I2
sbasg61
I1
sbasg61
I0
sbasg61
I0
sbasg61
I2
sbasg61
I1
sbag348
asg61
I0
sbag343
asg10
(lp407
g390
ag367
asg61
I0
sbasg61
I2
sbasg61
I1
sbag352
asg61
I0
sbasg61
I3
sbag333
ag338
ag343
ag352
ag357
ag362
ag348
ag390
ag386
ag367
ag372
ag377
ag382
ag397
ag402
a(iJob
Job
p408
(dp409
g3
I5
sg4
S'job_19651101_0_1_ini'
p410
sg6
I2824957
sg7
I0
sg8
(lp411
sg10
(lp412
(iJob
Job
p413
(dp414
g3
I4
sg4
S'job_19651101_0_1_sim'
p415
sg6
I2825035
sg7
I0
sg8
(lp416
sg10
(lp417
(iJob
Job
p418
(dp419
g3
I0
sg4
S'job_19651101_0_1_post'
p420
sg6
I0
sg7
I0
sg8
(lp421
g413
asg10
(lp422
(iJob
Job
p423
(dp424
g3
I0
sg4
S'job_19651101_0_1_clean'
p425
sg6
I0
sg7
I0
sg8
(lp426
g418
asg10
(lp427
(iJob
Job
p428
(dp429
g3
I0
sg4
S'job_19651101_0_3_sim'
p430
sg6
I0
sg7
I0
sg8
(lp431
(iJob
Job
p432
(dp433
g3
I0
sg4
S'job_19651101_0_2_sim'
p434
sg6
I0
sg7
I0
sg8
(lp435
g413
asg10
(lp436
(iJob
Job
p437
(dp438
g3
I0
sg4
S'job_19651101_0_2_post'
p439
sg6
I0
sg7
I0
sg8
(lp440
g432
asg10
(lp441
(iJob
Job
p442
(dp443
g3
I0
sg4
S'job_19651101_0_2_clean'
p444
sg6
I0
sg7
I0
sg8
(lp445
g437
asg10
(lp446
(iJob
Job
p447
(dp448
g3
I0
sg4
S'job_19651101_0_4_sim'
p449
sg6
I0
sg7
I0
sg8
(lp450
g428
ag442
asg10
(lp451
(iJob
Job
p452
(dp453
g3
I0
sg4
S'job_19651101_0_4_post'
p454
sg6
I0
sg7
I0
sg8
(lp455
g447
asg10
(lp456
(iJob
Job
p457
(dp458
g3
I0
sg4
S'job_19651101_0_4_clean'
p459
sg6
I0
sg7
I0
sg8
(lp460
g452
asg10
(lp461
sg61
I2
sbasg61
I1
sba(iJob
Job
p462
(dp463
g3
I0
sg4
S'job_19651101_0_5_sim'
p464
sg6
I0
sg7
I0
sg8
(lp465
g447
a(iJob
Job
p466
(dp467
g3
I0
sg4
S'job_19651101_0_3_clean'
p468
sg6
I0
sg7
I0
sg8
(lp469
(iJob
Job
p470
(dp471
g3
I0
sg4
S'job_19651101_0_3_post'
p472
sg6
I0
sg7
I0
sg8
(lp473
g428
asg10
(lp474
g466
asg61
I1
sbasg10
(lp475
g462
asg61
I2
sbasg10
(lp476
(iJob
Job
p477
(dp478
g3
I0
sg4
S'job_19651101_0_5_post'
p479
sg6
I0
sg7
I0
sg8
(lp480
g462
asg10
(lp481
(iJob
Job
p482
(dp483
g3
I0
sg4
S'job_19651101_0_5_clean'
p484
sg6
I0
sg7
I0
sg8
(lp485
g477
asg10
(lp486
sg61
I2
sbasg61
I1
sbasg61
I0
sbasg61
I0
sbasg61
I2
sbasg61
I1
sbag428
asg61
I0
sbag423
asg10
(lp487
g470
ag447
asg61
I0
sbasg61
I2
sbasg61
I1
sbag432
asg61
I0
sbasg61
I3
sbag413
ag418
ag423
ag432
ag437
ag442
ag428
ag470
ag466
ag447
ag452
ag457
ag462
ag477
ag482
a(iJob
Job
p488
(dp489
g3
I5
sg4
S'job_19651101_1_1_ini'
p490
sg6
I2824950
sg7
I0
sg8
(lp491
sg10
(lp492
(iJob
Job
p493
(dp494
g3
I4
sg4
S'job_19651101_1_1_sim'
p495
sg6
I2825034
sg7
I0
sg8
(lp496
sg10
(lp497
(iJob
Job
p498
(dp499
g3
I0
sg4
S'job_19651101_1_1_post'
p500
sg6
I0
sg7
I0
sg8
(lp501
g493
asg10
(lp502
(iJob
Job
p503
(dp504
g3
I0
sg4
S'job_19651101_1_1_clean'
p505
sg6
I0
sg7
I0
sg8
(lp506
g498
asg10
(lp507
(iJob
Job
p508
(dp509
g3
I0
sg4
S'job_19651101_1_3_sim'
p510
sg6
I0
sg7
I0
sg8
(lp511
(iJob
Job
p512
(dp513
g3
I0
sg4
S'job_19651101_1_2_sim'
p514
sg6
I0
sg7
I0
sg8
(lp515
g493
asg10
(lp516
(iJob
Job
p517
(dp518
g3
I0
sg4
S'job_19651101_1_2_post'
p519
sg6
I0
sg7
I0
sg8
(lp520
g512
asg10
(lp521
(iJob
Job
p522
(dp523
g3
I0
sg4
S'job_19651101_1_2_clean'
p524
sg6
I0
sg7
I0
sg8
(lp525
g517
asg10
(lp526
(iJob
Job
p527
(dp528
g3
I0
sg4
S'job_19651101_1_4_sim'
p529
sg6
I0
sg7
I0
sg8
(lp530
g508
ag522
asg10
(lp531
(iJob
Job
p532
(dp533
g3
I0
sg4
S'job_19651101_1_4_post'
p534
sg6
I0
sg7
I0
sg8
(lp535
g527
asg10
(lp536
(iJob
Job
p537
(dp538
g3
I0
sg4
S'job_19651101_1_4_clean'
p539
sg6
I0
sg7
I0
sg8
(lp540
g532
asg10
(lp541
sg61
I2
sbasg61
I1
sba(iJob
Job
p542
(dp543
g3
I0
sg4
S'job_19651101_1_5_sim'
p544
sg6
I0
sg7
I0
sg8
(lp545
g527
a(iJob
Job
p546
(dp547
g3
I0
sg4
S'job_19651101_1_3_clean'
p548
sg6
I0
sg7
I0
sg8
(lp549
(iJob
Job
p550
(dp551
g3
I0
sg4
S'job_19651101_1_3_post'
p552
sg6
I0
sg7
I0
sg8
(lp553
g508
asg10
(lp554
g546
asg61
I1
sbasg10
(lp555
g542
asg61
I2
sbasg10
(lp556
(iJob
Job
p557
(dp558
g3
I0
sg4
S'job_19651101_1_5_post'
p559
sg6
I0
sg7
I0
sg8
(lp560
g542
asg10
(lp561
(iJob
Job
p562
(dp563
g3
I0
sg4
S'job_19651101_1_5_clean'
p564
sg6
I0
sg7
I0
sg8
(lp565
g557
asg10
(lp566
sg61
I2
sbasg61
I1
sbasg61
I0
sbasg61
I0
sbasg61
I2
sbasg61
I1
sbag508
asg61
I0
sbag503
asg10
(lp567
g550
ag527
asg61
I0
sbasg61
I2
sbasg61
I1
sbag512
asg61
I0
sbasg61
I3
sbag493
ag498
ag503
ag512
ag517
ag522
ag508
ag550
ag546
ag527
ag532
ag537
ag542
ag557
ag562
a(iJob
Job
p568
(dp569
g3
I5
sg4
S'job_19651101_2_1_ini'
p570
sg6
I2824949
sg7
I0
sg8
(lp571
sg10
(lp572
(iJob
Job
p573
(dp574
g3
I4
sg4
S'job_19651101_2_1_sim'
p575
sg6
I2825006
sg7
I0
sg8
(lp576
sg10
(lp577
(iJob
Job
p578
(dp579
g3
I0
sg4
S'job_19651101_2_1_post'
p580
sg6
I0
sg7
I0
sg8
(lp581
g573
asg10
(lp582
(iJob
Job
p583
(dp584
g3
I0
sg4
S'job_19651101_2_1_clean'
p585
sg6
I0
sg7
I0
sg8
(lp586
g578
asg10
(lp587
(iJob
Job
p588
(dp589
g3
I0
sg4
S'job_19651101_2_3_sim'
p590
sg6
I0
sg7
I0
sg8
(lp591
(iJob
Job
p592
(dp593
g3
I0
sg4
S'job_19651101_2_2_sim'
p594
sg6
I0
sg7
I0
sg8
(lp595
g573
asg10
(lp596
(iJob
Job
p597
(dp598
g3
I0
sg4
S'job_19651101_2_2_post'
p599
sg6
I0
sg7
I0
sg8
(lp600
g592
asg10
(lp601
(iJob
Job
p602
(dp603
g3
I0
sg4
S'job_19651101_2_2_clean'
p604
sg6
I0
sg7
I0
sg8
(lp605
g597
asg10
(lp606
(iJob
Job
p607
(dp608
g3
I0
sg4
S'job_19651101_2_4_sim'
p609
sg6
I0
sg7
I0
sg8
(lp610
g588
ag602
asg10
(lp611
(iJob
Job
p612
(dp613
g3
I0
sg4
S'job_19651101_2_4_post'
p614
sg6
I0
sg7
I0
sg8
(lp615
g607
asg10
(lp616
(iJob
Job
p617
(dp618
g3
I0
sg4
S'job_19651101_2_4_clean'
p619
sg6
I0
sg7
I0
sg8
(lp620
g612
asg10
(lp621
sg61
I2
sbasg61
I1
sba(iJob
Job
p622
(dp623
g3
I0
sg4
S'job_19651101_2_5_sim'
p624
sg6
I0
sg7
I0
sg8
(lp625
g607
a(iJob
Job
p626
(dp627
g3
I0
sg4
S'job_19651101_2_3_clean'
p628
sg6
I0
sg7
I0
sg8
(lp629
(iJob
Job
p630
(dp631
g3
I0
sg4
S'job_19651101_2_3_post'
p632
sg6
I0
sg7
I0
sg8
(lp633
g588
asg10
(lp634
g626
asg61
I1
sbasg10
(lp635
g622
asg61
I2
sbasg10
(lp636
(iJob
Job
p637
(dp638
g3
I0
sg4
S'job_19651101_2_5_post'
p639
sg6
I0
sg7
I0
sg8
(lp640
g622
asg10
(lp641
(iJob
Job
p642
(dp643
g3
I0
sg4
S'job_19651101_2_5_clean'
p644
sg6
I0
sg7
I0
sg8
(lp645
g637
asg10
(lp646
sg61
I2
sbasg61
I1
sbasg61
I0
sbasg61
I0
sbasg61
I2
sbasg61
I1
sbag588
asg61
I0
sbag583
asg10
(lp647
g630
ag607
asg61
I0
sbasg61
I2
sbasg61
I1
sbag592
asg61
I0
sbasg61
I3
sbag573
ag578
ag583
ag592
ag597
ag602
ag588
ag630
ag626
ag607
ag612
ag617
ag622
ag637
ag642
a(iJob
Job
p648
(dp649
g3
I5
sg4
S'job_19651101_3_1_ini'
p650
sg6
I2824947
sg7
I0
sg8
(lp651
sg10
(lp652
(iJob
Job
p653
(dp654
g3
I4
sg4
S'job_19651101_3_1_sim'
p655
sg6
I2825005
sg7
I0
sg8
(lp656
sg10
(lp657
(iJob
Job
p658
(dp659
g3
I0
sg4
S'job_19651101_3_1_post'
p660
sg6
I0
sg7
I0
sg8
(lp661
g653
asg10
(lp662
(iJob
Job
p663
(dp664
g3
I0
sg4
S'job_19651101_3_1_clean'
p665
sg6
I0
sg7
I0
sg8
(lp666
g658
asg10
(lp667
(iJob
Job
p668
(dp669
g3
I0
sg4
S'job_19651101_3_3_sim'
p670
sg6
I0
sg7
I0
sg8
(lp671
(iJob
Job
p672
(dp673
g3
I0
sg4
S'job_19651101_3_2_sim'
p674
sg6
I0
sg7
I0
sg8
(lp675
g653
asg10
(lp676
(iJob
Job
p677
(dp678
g3
I0
sg4
S'job_19651101_3_2_post'
p679
sg6
I0
sg7
I0
sg8
(lp680
g672
asg10
(lp681
(iJob
Job
p682
(dp683
g3
I0
sg4
S'job_19651101_3_2_clean'
p684
sg6
I0
sg7
I0
sg8
(lp685
g677
asg10
(lp686
(iJob
Job
p687
(dp688
g3
I0
sg4
S'job_19651101_3_4_sim'
p689
sg6
I0
sg7
I0
sg8
(lp690
g668
ag682
asg10
(lp691
(iJob
Job
p692
(dp693
g3
I0
sg4
S'job_19651101_3_4_post'
p694
sg6
I0
sg7
I0
sg8
(lp695
g687
asg10
(lp696
(iJob
Job
p697
(dp698
g3
I0
sg4
S'job_19651101_3_4_clean'
p699
sg6
I0
sg7
I0
sg8
(lp700
g692
asg10
(lp701
sg61
I2
sbasg61
I1
sba(iJob
Job
p702
(dp703
g3
I0
sg4
S'job_19651101_3_5_sim'
p704
sg6
I0
sg7
I0
sg8
(lp705
g687
a(iJob
Job
p706
(dp707
g3
I0
sg4
S'job_19651101_3_3_clean'
p708
sg6
I0
sg7
I0
sg8
(lp709
(iJob
Job
p710
(dp711
g3
I0
sg4
S'job_19651101_3_3_post'
p712
sg6
I0
sg7
I0
sg8
(lp713
g668
asg10
(lp714
g706
asg61
I1
sbasg10
(lp715
g702
asg61
I2
sbasg10
(lp716
(iJob
Job
p717
(dp718
g3
I0
sg4
S'job_19651101_3_5_post'
p719
sg6
I0
sg7
I0
sg8
(lp720
g702
asg10
(lp721
(iJob
Job
p722
(dp723
g3
I0
sg4
S'job_19651101_3_5_clean'
p724
sg6
I0
sg7
I0
sg8
(lp725
g717
asg10
(lp726
sg61
I2
sbasg61
I1
sbasg61
I0
sbasg61
I0
sbasg61
I2
sbasg61
I1
sbag668
asg61
I0
sbag663
asg10
(lp727
g710
ag687
asg61
I0
sbasg61
I2
sbasg61
I1
sbag672
asg61
I0
sbasg61
I3
sbag653
ag658
ag663
ag672
ag677
ag682
ag668
ag710
ag706
ag687
ag692
ag697
ag702
ag717
ag722
a(iJob
Job
p728
(dp729
g3
I5
sg4
S'job_19651101_4_1_ini'
p730
sg6
I2824946
sg7
I0
sg8
(lp731
sg10
(lp732
(iJob
Job
p733
(dp734
g3
I4
sg4
S'job_19651101_4_1_sim'
p735
sg6
I2825004
sg7
I0
sg8
(lp736
sg10
(lp737
(iJob
Job
p738
(dp739
g3
I0
sg4
S'job_19651101_4_1_post'
p740
sg6
I0
sg7
I0
sg8
(lp741
g733
asg10
(lp742
(iJob
Job
p743
(dp744
g3
I0
sg4
S'job_19651101_4_1_clean'
p745
sg6
I0
sg7
I0
sg8
(lp746
g738
asg10
(lp747
(iJob
Job
p748
(dp749
g3
I0
sg4
S'job_19651101_4_3_sim'
p750
sg6
I0
sg7
I0
sg8
(lp751
(iJob
Job
p752
(dp753
g3
I0
sg4
S'job_19651101_4_2_sim'
p754
sg6
I0
sg7
I0
sg8
(lp755
g733
asg10
(lp756
(iJob
Job
p757
(dp758
g3
I0
sg4
S'job_19651101_4_2_post'
p759
sg6
I0
sg7
I0
sg8
(lp760
g752
asg10
(lp761
(iJob
Job
p762
(dp763
g3
I0
sg4
S'job_19651101_4_2_clean'
p764
sg6
I0
sg7
I0
sg8
(lp765
g757
asg10
(lp766
(iJob
Job
p767
(dp768
g3
I0
sg4
S'job_19651101_4_4_sim'
p769
sg6
I0
sg7
I0
sg8
(lp770
g748
ag762
asg10
(lp771
(iJob
Job
p772
(dp773
g3
I0
sg4
S'job_19651101_4_4_post'
p774
sg6
I0
sg7
I0
sg8
(lp775
g767
asg10
(lp776
(iJob
Job
p777
(dp778
g3
I0
sg4
S'job_19651101_4_4_clean'
p779
sg6
I0
sg7
I0
sg8
(lp780
g772
asg10
(lp781
sg61
I2
sbasg61
I1
sba(iJob
Job
p782
(dp783
g3
I0
sg4
S'job_19651101_4_5_sim'
p784
sg6
I0
sg7
I0
sg8
(lp785
g767
a(iJob
Job
p786
(dp787
g3
I0
sg4
S'job_19651101_4_3_clean'
p788
sg6
I0
sg7
I0
sg8
(lp789
(iJob
Job
p790
(dp791
g3
I0
sg4
S'job_19651101_4_3_post'
p792
sg6
I0
sg7
I0
sg8
(lp793
g748
asg10
(lp794
g786
asg61
I1
sbasg10
(lp795
g782
asg61
I2
sbasg10
(lp796
(iJob
Job
p797
(dp798
g3
I0
sg4
S'job_19651101_4_5_post'
p799
sg6
I0
sg7
I0
sg8
(lp800
g782
asg10
(lp801
(iJob
Job
p802
(dp803
g3
I0
sg4
S'job_19651101_4_5_clean'
p804
sg6
I0
sg7
I0
sg8
(lp805
g797
asg10
(lp806
sg61
I2
sbasg61
I1
sbasg61
I0
sbasg61
I0
sbasg61
I2
sbasg61
I1
sbag748
asg61
I0
sbag743
asg10
(lp807
g790
ag767
asg61
I0
sbasg61
I2
sbasg61
I1
sbag752
asg61
I0
sbasg61
I3
sbag733
ag738
ag743
ag752
ag757
ag762
ag748
ag790
ag786
ag767
ag772
ag777
ag782
ag797
ag802
a.